; Function Attrs: mustprogress nofree norecurse nosync nounwind willreturn memory(argmem: read) uwtable
define hidden noundef zeroext i1 @_ZN7datalog20rule_size_comparatorEPNS_4ruleES1_(ptr nocapture noundef readonly %r1, ptr nocapture noundef readonly %r2) #5 {
entry:
  %m_tail_size.i = getelementptr inbounds i8, ptr %r1, i64 56
  %0 = load i32, ptr %m_tail_size.i, align 8
  %m_tail_size.i1 = getelementptr inbounds i8, ptr %r2, i64 56
  %1 = load i32, ptr %m_tail_size.i1, align 8
  %cmp = icmp ult i32 %0, %1
  ret i1 %cmp
}